; ModuleID = '16/888.cpp'
source_filename = "16/888.cpp"
target datalayout = "e-m:e-p270:32:32-p271:32:32-p272:64:64-i64:64-f80:128-n8:16:32:64-S128"
target triple = "x86_64-pc-linux-gnu"

%"class.std::ios_base::Init" = type { i8 }
%"class.std::basic_istream" = type { i32 (...)**, i64, %"class.std::basic_ios" }
%"class.std::basic_ios" = type { %"class.std::ios_base", %"class.std::basic_ostream"*, i8, i8, %"class.std::basic_streambuf"*, %"class.std::ctype"*, %"class.std::num_put"*, %"class.std::num_get"* }
%"class.std::ios_base" = type { i32 (...)**, i64, i64, i32, i32, i32, %"struct.std::ios_base::_Callback_list"*, %"struct.std::ios_base::_Words", [8 x %"struct.std::ios_base::_Words"], i32, %"struct.std::ios_base::_Words"*, %"class.std::locale" }
%"struct.std::ios_base::_Callback_list" = type { %"struct.std::ios_base::_Callback_list"*, void (i32, %"class.std::ios_base"*, i32)*, i32, i32 }
%"struct.std::ios_base::_Words" = type { i8*, i64 }
%"class.std::locale" = type { %"class.std::locale::_Impl"* }
%"class.std::locale::_Impl" = type { i32, %"class.std::locale::facet"**, i64, %"class.std::locale::facet"**, i8** }
%"class.std::locale::facet" = type <{ i32 (...)**, i32, [4 x i8] }>
%"class.std::basic_ostream" = type { i32 (...)**, %"class.std::basic_ios" }
%"class.std::basic_streambuf" = type { i32 (...)**, i8*, i8*, i8*, i8*, i8*, i8*, %"class.std::locale" }
%"class.std::ctype" = type <{ %"class.std::locale::facet.base", [4 x i8], %struct.__locale_struct*, i8, [7 x i8], i32*, i32*, i16*, i8, [256 x i8], [256 x i8], i8, [6 x i8] }>
%"class.std::locale::facet.base" = type <{ i32 (...)**, i32 }>
%struct.__locale_struct = type { [13 x %struct.__locale_data*], i16*, i32*, i32*, [13 x i8*] }
%struct.__locale_data = type opaque
%"class.std::num_put" = type { %"class.std::locale::facet.base", [4 x i8] }
%"class.std::num_get" = type { %"class.std::locale::facet.base", [4 x i8] }

@_ZStL8__ioinit = internal global %"class.std::ios_base::Init" zeroinitializer, align 1
@__dso_handle = external hidden global i8
@_ZSt3cin = external dso_local global %"class.std::basic_istream", align 8
@_ZSt4cout = external dso_local global %"class.std::basic_ostream", align 8
@llvm.global_ctors = appending global [1 x { i32, void ()*, i8* }] [{ i32, void ()*, i8* } { i32 65535, void ()* @_GLOBAL__sub_I_888.cpp, i8* null }]

; Function Attrs: noinline uwtable
define internal void @__cxx_global_var_init() #0 section ".text.startup" {
  call void @_ZNSt8ios_base4InitC1Ev(%"class.std::ios_base::Init"* @_ZStL8__ioinit)
  %1 = call i32 @__cxa_atexit(void (i8*)* bitcast (void (%"class.std::ios_base::Init"*)* @_ZNSt8ios_base4InitD1Ev to void (i8*)*), i8* getelementptr inbounds (%"class.std::ios_base::Init", %"class.std::ios_base::Init"* @_ZStL8__ioinit, i32 0, i32 0), i8* @__dso_handle) #3
  ret void
}

declare dso_local void @_ZNSt8ios_base4InitC1Ev(%"class.std::ios_base::Init"*) unnamed_addr #1

; Function Attrs: nounwind
declare dso_local void @_ZNSt8ios_base4InitD1Ev(%"class.std::ios_base::Init"*) unnamed_addr #2

; Function Attrs: nounwind
declare dso_local i32 @__cxa_atexit(void (i8*)*, i8*, i8*) #3

; Function Attrs: noinline norecurse uwtable
define dso_local i32 @main() #4 {
  %1 = alloca i32, align 4
  %2 = alloca i32, align 4
  %3 = alloca i32, align 4
  %4 = alloca i32, align 4
  %5 = alloca [5 x i32], align 16
  store i32 0, i32* %1, align 4
  store i32 0, i32* %2, align 4
  store i32 0, i32* %3, align 4
  store i32 0, i32* %4, align 4
  %6 = call dereferenceable(280) %"class.std::basic_istream"* @_ZNSirsERi(%"class.std::basic_istream"* @_ZSt3cin, i32* dereferenceable(4) %2)
  %7 = load i32, i32* %2, align 4
  %8 = icmp eq i32 %7, 0
  br i1 %8, label %9, label %11

9:                                                ; preds = %0
  %10 = call dereferenceable(272) %"class.std::basic_ostream"* @_ZNSolsEi(%"class.std::basic_ostream"* @_ZSt4cout, i32 0)
  br label %96

11:                                               ; preds = %0
  %12 = load i32, i32* %2, align 4
  %13 = sdiv i32 %12, 10000
  %14 = getelementptr inbounds [5 x i32], [5 x i32]* %5, i64 0, i64 0
  store i32 %13, i32* %14, align 16
  %15 = load i32, i32* %2, align 4
  %16 = getelementptr inbounds [5 x i32], [5 x i32]* %5, i64 0, i64 0
  %17 = load i32, i32* %16, align 16
  %18 = mul nsw i32 10000, %17
  %19 = sub nsw i32 %15, %18
  %20 = sdiv i32 %19, 1000
  %21 = getelementptr inbounds [5 x i32], [5 x i32]* %5, i64 0, i64 1
  store i32 %20, i32* %21, align 4
  %22 = load i32, i32* %2, align 4
  %23 = getelementptr inbounds [5 x i32], [5 x i32]* %5, i64 0, i64 0
  %24 = load i32, i32* %23, align 16
  %25 = mul nsw i32 10000, %24
  %26 = sub nsw i32 %22, %25
  %27 = getelementptr inbounds [5 x i32], [5 x i32]* %5, i64 0, i64 1
  %28 = load i32, i32* %27, align 4
  %29 = mul nsw i32 1000, %28
  %30 = sub nsw i32 %26, %29
  %31 = sdiv i32 %30, 100
  %32 = getelementptr inbounds [5 x i32], [5 x i32]* %5, i64 0, i64 2
  store i32 %31, i32* %32, align 8
  %33 = load i32, i32* %2, align 4
  %34 = getelementptr inbounds [5 x i32], [5 x i32]* %5, i64 0, i64 0
  %35 = load i32, i32* %34, align 16
  %36 = mul nsw i32 10000, %35
  %37 = sub nsw i32 %33, %36
  %38 = getelementptr inbounds [5 x i32], [5 x i32]* %5, i64 0, i64 1
  %39 = load i32, i32* %38, align 4
  %40 = mul nsw i32 1000, %39
  %41 = sub nsw i32 %37, %40
  %42 = getelementptr inbounds [5 x i32], [5 x i32]* %5, i64 0, i64 2
  %43 = load i32, i32* %42, align 8
  %44 = mul nsw i32 100, %43
  %45 = sub nsw i32 %41, %44
  %46 = sdiv i32 %45, 10
  %47 = getelementptr inbounds [5 x i32], [5 x i32]* %5, i64 0, i64 3
  store i32 %46, i32* %47, align 4
  %48 = load i32, i32* %2, align 4
  %49 = getelementptr inbounds [5 x i32], [5 x i32]* %5, i64 0, i64 0
  %50 = load i32, i32* %49, align 16
  %51 = mul nsw i32 10000, %50
  %52 = sub nsw i32 %48, %51
  %53 = getelementptr inbounds [5 x i32], [5 x i32]* %5, i64 0, i64 1
  %54 = load i32, i32* %53, align 4
  %55 = mul nsw i32 1000, %54
  %56 = sub nsw i32 %52, %55
  %57 = getelementptr inbounds [5 x i32], [5 x i32]* %5, i64 0, i64 2
  %58 = load i32, i32* %57, align 8
  %59 = mul nsw i32 100, %58
  %60 = sub nsw i32 %56, %59
  %61 = getelementptr inbounds [5 x i32], [5 x i32]* %5, i64 0, i64 3
  %62 = load i32, i32* %61, align 4
  %63 = mul nsw i32 10, %62
  %64 = sub nsw i32 %60, %63
  %65 = getelementptr inbounds [5 x i32], [5 x i32]* %5, i64 0, i64 4
  store i32 %64, i32* %65, align 16
  store i32 0, i32* %4, align 4
  br label %66

66:                                               ; preds = %78, %11
  %67 = load i32, i32* %4, align 4
  %68 = icmp sle i32 %67, 4
  br i1 %68, label %69, label %81

69:                                               ; preds = %66
  %70 = load i32, i32* %4, align 4
  %71 = sext i32 %70 to i64
  %72 = getelementptr inbounds [5 x i32], [5 x i32]* %5, i64 0, i64 %71
  %73 = load i32, i32* %72, align 4
  %74 = icmp ne i32 %73, 0
  br i1 %74, label %75, label %77

75:                                               ; preds = %69
  %76 = load i32, i32* %4, align 4
  store i32 %76, i32* %3, align 4
  br label %81

77:                                               ; preds = %69
  br label %78

78:                                               ; preds = %77
  %79 = load i32, i32* %4, align 4
  %80 = add nsw i32 %79, 1
  store i32 %80, i32* %4, align 4
  br label %66

81:                                               ; preds = %75, %66
  store i32 4, i32* %4, align 4
  br label %82

82:                                               ; preds = %92, %81
  %83 = load i32, i32* %4, align 4
  %84 = load i32, i32* %3, align 4
  %85 = icmp sge i32 %83, %84
  br i1 %85, label %86, label %95

86:                                               ; preds = %82
  %87 = load i32, i32* %4, align 4
  %88 = sext i32 %87 to i64
  %89 = getelementptr inbounds [5 x i32], [5 x i32]* %5, i64 0, i64 %88
  %90 = load i32, i32* %89, align 4
  %91 = call dereferenceable(272) %"class.std::basic_ostream"* @_ZNSolsEi(%"class.std::basic_ostream"* @_ZSt4cout, i32 %90)
  br label %92

92:                                               ; preds = %86
  %93 = load i32, i32* %4, align 4
  %94 = add nsw i32 %93, -1
  store i32 %94, i32* %4, align 4
  br label %82

95:                                               ; preds = %82
  br label %96

96:                                               ; preds = %95, %9
  ret i32 0
}

declare dso_local dereferenceable(280) %"class.std::basic_istream"* @_ZNSirsERi(%"class.std::basic_istream"*, i32* dereferenceable(4)) #1

declare dso_local dereferenceable(272) %"class.std::basic_ostream"* @_ZNSolsEi(%"class.std::basic_ostream"*, i32) #1

; Function Attrs: noinline uwtable
define internal void @_GLOBAL__sub_I_888.cpp() #0 section ".text.startup" {
  call void @__cxx_global_var_init()
  ret void
}


!llvm.module.flags = !{!0}
!llvm.ident = !{!1}

!0 = !{i32 1, !"wchar_size", i32 4}
!1 = !{!"clang version 10.0.0-4ubuntu1 "}
