; ModuleID = 'source-C-CXX/15/888.cpp'
source_filename = "source-C-CXX/15/888.cpp"
target datalayout = "e-m:e-p270:32:32-p271:32:32-p272:64:64-i64:64-f80:128-n8:16:32:64-S128"
target triple = "x86_64-pc-linux-gnu"

%"class.std::ios_base::Init" = type { i8 }
%"class.std::basic_istream" = type { i32 (...)**, i64, %"class.std::basic_ios" }
%"class.std::basic_ios" = type { %"class.std::ios_base", %"class.std::basic_ostream"*, i8, i8, %"class.std::basic_streambuf"*, %"class.std::ctype"*, %"class.std::num_put"*, %"class.std::num_get"* }
%"class.std::ios_base" = type { i32 (...)**, i64, i64, i32, i32, i32, %"struct.std::ios_base::_Callback_list"*, %"struct.std::ios_base::_Words", [8 x %"struct.std::ios_base::_Words"], i32, %"struct.std::ios_base::_Words"*, %"class.std::locale" }
%"struct.std::ios_base::_Callback_list" = type { %"struct.std::ios_base::_Callback_list"*, void (i32, %"class.std::ios_base"*, i32)*, i32, i32 }
%"struct.std::ios_base::_Words" = type { i8*, i64 }
%"class.std::locale" = type { %"class.std::locale::_Impl"* }
%"class.std::locale::_Impl" = type { i32, %"class.std::locale::facet"**, i64, %"class.std::locale::facet"**, i8** }
%"class.std::locale::facet" = type <{ i32 (...)**, i32, [4 x i8] }>
%"class.std::basic_ostream" = type { i32 (...)**, %"class.std::basic_ios" }
%"class.std::basic_streambuf" = type { i32 (...)**, i8*, i8*, i8*, i8*, i8*, i8*, %"class.std::locale" }
%"class.std::ctype" = type <{ %"class.std::locale::facet.base", [4 x i8], %struct.__locale_struct*, i8, [7 x i8], i32*, i32*, i16*, i8, [256 x i8], [256 x i8], i8, [6 x i8] }>
%"class.std::locale::facet.base" = type <{ i32 (...)**, i32 }>
%struct.__locale_struct = type { [13 x %struct.__locale_data*], i16*, i32*, i32*, [13 x i8*] }
%struct.__locale_data = type opaque
%"class.std::num_put" = type { %"class.std::locale::facet.base", [4 x i8] }
%"class.std::num_get" = type { %"class.std::locale::facet.base", [4 x i8] }

@_ZStL8__ioinit = internal global %"class.std::ios_base::Init" zeroinitializer, align 1
@__dso_handle = external hidden global i8
@_ZSt3cin = external global %"class.std::basic_istream", align 8
@_ZSt4cout = external global %"class.std::basic_ostream", align 8
@llvm.global_ctors = appending global [1 x { i32, void ()*, i8* }] [{ i32, void ()*, i8* } { i32 65535, void ()* @_GLOBAL__sub_I_888.cpp, i8* null }]

declare void @_ZNSt8ios_base4InitC1Ev(%"class.std::ios_base::Init"* nonnull align 1 dereferenceable(1)) unnamed_addr #0

; Function Attrs: nounwind
declare void @_ZNSt8ios_base4InitD1Ev(%"class.std::ios_base::Init"* nonnull align 1 dereferenceable(1)) unnamed_addr #1

; Function Attrs: nofree nounwind
declare i32 @__cxa_atexit(void (i8*)*, i8*, i8*) local_unnamed_addr #2

; Function Attrs: mustprogress norecurse sspstrong uwtable
define dso_local i32 @main() local_unnamed_addr #3 {
  %1 = alloca i32, align 4
  %2 = alloca [5 x i32], align 16
  %3 = bitcast i32* %1 to i8*
  call void @llvm.lifetime.start.p0i8(i64 4, i8* nonnull %3) #6
  store i32 0, i32* %1, align 4, !tbaa !5
  %4 = call nonnull align 8 dereferenceable(16) %"class.std::basic_istream"* @_ZNSirsERi(%"class.std::basic_istream"* nonnull align 8 dereferenceable(16) @_ZSt3cin, i32* nonnull align 4 dereferenceable(4) %1)
  %5 = load i32, i32* %1, align 4, !tbaa !5
  %6 = icmp eq i32 %5, 0
  br i1 %6, label %7, label %9

7:                                                ; preds = %0
  %8 = call nonnull align 8 dereferenceable(8) %"class.std::basic_ostream"* @_ZNSolsEi(%"class.std::basic_ostream"* nonnull align 8 dereferenceable(8) @_ZSt4cout, i32 0)
  br label %45

9:                                                ; preds = %0
  %10 = bitcast [5 x i32]* %2 to i8*
  call void @llvm.lifetime.start.p0i8(i64 20, i8* nonnull %10) #6
  %11 = sdiv i32 %5, 10000
  %12 = getelementptr inbounds [5 x i32], [5 x i32]* %2, i64 0, i64 0
  store i32 %11, i32* %12, align 16, !tbaa !5
  %13 = mul nsw i32 %11, -10000
  %14 = add i32 %13, %5
  %15 = sdiv i32 %14, 1000
  %16 = getelementptr inbounds [5 x i32], [5 x i32]* %2, i64 0, i64 1
  store i32 %15, i32* %16, align 4, !tbaa !5
  %17 = mul nsw i32 %15, -1000
  %18 = add i32 %17, %14
  %19 = sdiv i32 %18, 100
  %20 = getelementptr inbounds [5 x i32], [5 x i32]* %2, i64 0, i64 2
  store i32 %19, i32* %20, align 8, !tbaa !5
  %21 = mul nsw i32 %19, -100
  %22 = add i32 %21, %18
  %23 = sdiv i32 %22, 10
  %24 = getelementptr inbounds [5 x i32], [5 x i32]* %2, i64 0, i64 3
  store i32 %23, i32* %24, align 4, !tbaa !5
  %25 = mul nsw i32 %23, -10
  %26 = add i32 %25, %22
  %27 = getelementptr inbounds [5 x i32], [5 x i32]* %2, i64 0, i64 4
  store i32 %26, i32* %27, align 16, !tbaa !5
  %28 = add i32 %5, 9999
  %29 = icmp ult i32 %28, 19999
  br i1 %29, label %30, label %33

30:                                               ; preds = %9
  %31 = add i32 %14, 999
  %32 = icmp ult i32 %31, 1999
  br i1 %32, label %46, label %33

33:                                               ; preds = %52, %9, %30, %46, %49
  %34 = phi i64 [ 0, %9 ], [ 1, %30 ], [ 2, %46 ], [ 3, %49 ], [ %54, %52 ]
  %35 = call nonnull align 8 dereferenceable(8) %"class.std::basic_ostream"* @_ZNSolsEi(%"class.std::basic_ostream"* nonnull align 8 dereferenceable(8) @_ZSt4cout, i32 %26)
  %36 = icmp ult i64 %34, 4
  br i1 %36, label %37, label %44, !llvm.loop !9

37:                                               ; preds = %33, %37
  %38 = phi i64 [ %42, %37 ], [ 3, %33 ]
  %39 = getelementptr inbounds [5 x i32], [5 x i32]* %2, i64 0, i64 %38
  %40 = load i32, i32* %39, align 4, !tbaa !5
  %41 = call nonnull align 8 dereferenceable(8) %"class.std::basic_ostream"* @_ZNSolsEi(%"class.std::basic_ostream"* nonnull align 8 dereferenceable(8) @_ZSt4cout, i32 %40)
  %42 = add nsw i64 %38, -1
  %43 = icmp ugt i64 %38, %34
  br i1 %43, label %37, label %44, !llvm.loop !9

44:                                               ; preds = %37, %33
  call void @llvm.lifetime.end.p0i8(i64 20, i8* nonnull %10) #6
  br label %45

45:                                               ; preds = %44, %7
  call void @llvm.lifetime.end.p0i8(i64 4, i8* nonnull %3) #6
  ret i32 0

46:                                               ; preds = %30
  %47 = add i32 %18, 99
  %48 = icmp ult i32 %47, 199
  br i1 %48, label %49, label %33

49:                                               ; preds = %46
  %50 = add i32 %22, 9
  %51 = icmp ult i32 %50, 19
  br i1 %51, label %52, label %33

52:                                               ; preds = %49
  %53 = icmp eq i32 %26, 0
  %54 = select i1 %53, i64 0, i64 4
  br label %33
}

; Function Attrs: argmemonly mustprogress nofree nosync nounwind willreturn
declare void @llvm.lifetime.start.p0i8(i64 immarg, i8* nocapture) #4

declare nonnull align 8 dereferenceable(16) %"class.std::basic_istream"* @_ZNSirsERi(%"class.std::basic_istream"* nonnull align 8 dereferenceable(16), i32* nonnull align 4 dereferenceable(4)) local_unnamed_addr #0

declare nonnull align 8 dereferenceable(8) %"class.std::basic_ostream"* @_ZNSolsEi(%"class.std::basic_ostream"* nonnull align 8 dereferenceable(8), i32) local_unnamed_addr #0

; Function Attrs: argmemonly mustprogress nofree nosync nounwind willreturn
declare void @llvm.lifetime.end.p0i8(i64 immarg, i8* nocapture) #4

; Function Attrs: sspstrong uwtable
define internal void @_GLOBAL__sub_I_888.cpp() #5 section ".text.startup" {
  tail call void @_ZNSt8ios_base4InitC1Ev(%"class.std::ios_base::Init"* nonnull align 1 dereferenceable(1) @_ZStL8__ioinit)
  %1 = tail call i32 @__cxa_atexit(void (i8*)* bitcast (void (%"class.std::ios_base::Init"*)* @_ZNSt8ios_base4InitD1Ev to void (i8*)*), i8* getelementptr inbounds (%"class.std::ios_base::Init", %"class.std::ios_base::Init"* @_ZStL8__ioinit, i64 0, i32 0), i8* nonnull @__dso_handle) #6
  ret void
}


!llvm.module.flags = !{!0, !1, !2, !3}
!llvm.ident = !{!4}

!0 = !{i32 1, !"wchar_size", i32 4}
!1 = !{i32 7, !"PIC Level", i32 2}
!2 = !{i32 7, !"PIE Level", i32 2}
!3 = !{i32 7, !"uwtable", i32 1}
!4 = !{!"clang version 13.0.0"}
!5 = !{!6, !6, i64 0}
!6 = !{!"int", !7, i64 0}
!7 = !{!"omnipotent char", !8, i64 0}
!8 = !{!"Simple C++ TBAA"}
!9 = distinct !{!9, !10}
!10 = !{!"llvm.loop.mustprogress"}
